target datalayout = "e-m:e-p270:32:32-p271:32:32-p272:64:64-i64:64-i128:128-f80:128-n8:16:32:64-S128"
target triple = "x86_64-pc-linux-gnu"

%struct.AVFilterContext = type { ptr, ptr, ptr, ptr, ptr, i32, ptr, ptr, i32, ptr, ptr, i32, i32, ptr, ptr, ptr, ptr, i32, ptr, i32, i32 }
%struct.XFadeContext = type { ptr, i32, i64, i64, ptr, i32, i32, i32, i64, i64, i64, i64, i32, [2 x i32], [2 x ptr], i32, [4 x i16], [4 x i16], ptr, ptr }
%struct.AVRational = type { i32, i32 }
%struct.AVFrame = type { [8 x ptr], [8 x i32], ptr, i32, i32, i32, i32, i32, %struct.AVRational, i64, i64, %struct.AVRational, i32, ptr, i32, i32, [8 x ptr], ptr, i32, ptr, i32, i32, i32, i32, i32, i32, i32, i64, ptr, i32, ptr, ptr, i64, i64, i64, i64, ptr, %struct.AVChannelLayout, i64 }
%struct.AVChannelLayout = type { i32, i32, %union.anon.1, ptr }
%union.anon.1 = type { i64 }

; Function Attrs: nounwind uwtable
define internal void @wiperight8_transition(ptr noundef %0, ptr noundef %1, ptr noundef %2, ptr noundef %3, float noundef %4, i32 noundef %5, i32 noundef %6, i32 noundef %7) #1 {
  %9 = alloca ptr, align 8
  %10 = alloca ptr, align 8
  %11 = alloca ptr, align 8
  %12 = alloca ptr, align 8
  %13 = alloca float, align 4
  %14 = alloca i32, align 4
  %15 = alloca i32, align 4
  %16 = alloca i32, align 4
  %17 = alloca ptr, align 8
  %18 = alloca i32, align 4
  %19 = alloca i32, align 4
  %20 = alloca i32, align 4
  %21 = alloca i32, align 4
  %22 = alloca i32, align 4
  %23 = alloca ptr, align 8
  %24 = alloca ptr, align 8
  %25 = alloca ptr, align 8
  %26 = alloca i32, align 4
  %27 = alloca i32, align 4
  store ptr %0, ptr %9, align 8, !tbaa !4
  store ptr %1, ptr %10, align 8, !tbaa !36
  store ptr %2, ptr %11, align 8, !tbaa !36
  store ptr %3, ptr %12, align 8, !tbaa !36
  store float %4, ptr %13, align 4, !tbaa !90
  store i32 %5, ptr %14, align 4, !tbaa !32
  store i32 %6, ptr %15, align 4, !tbaa !32
  store i32 %7, ptr %16, align 4, !tbaa !32
  call void @llvm.lifetime.start.p0(i64 8, ptr %17) #10
  %28 = load ptr, ptr %9, align 8, !tbaa !4
  %29 = getelementptr inbounds nuw %struct.AVFilterContext, ptr %28, i32 0, i32 9
  %30 = load ptr, ptr %29, align 8, !tbaa !9
  store ptr %30, ptr %17, align 8, !tbaa !22
  call void @llvm.lifetime.start.p0(i64 4, ptr %18) #10
  %31 = load i32, ptr %15, align 4, !tbaa !32
  %32 = load i32, ptr %14, align 4, !tbaa !32
  %33 = sub nsw i32 %31, %32
  store i32 %33, ptr %18, align 4, !tbaa !32
  call void @llvm.lifetime.start.p0(i64 4, ptr %19) #10
  %34 = load ptr, ptr %12, align 8, !tbaa !36
  %35 = getelementptr inbounds nuw %struct.AVFrame, ptr %34, i32 0, i32 3
  %36 = load i32, ptr %35, align 8, !tbaa !92
  store i32 %36, ptr %19, align 4, !tbaa !32
  call void @llvm.lifetime.start.p0(i64 4, ptr %20) #10
  %37 = load i32, ptr %19, align 4, !tbaa !32
  %38 = sitofp i32 %37 to float
  %39 = load float, ptr %13, align 4, !tbaa !90
  %40 = fsub nsz float 1.000000e+00, %39
  %41 = fmul nsz float %38, %40
  %42 = fptosi float %41 to i32
  store i32 %42, ptr %20, align 4, !tbaa !32
  call void @llvm.lifetime.start.p0(i64 4, ptr %21) #10
  store i32 0, ptr %21, align 4, !tbaa !32
  br label %43

43:                                               ; preds = %173, %8
  %44 = load i32, ptr %21, align 4, !tbaa !32
  %45 = load ptr, ptr %17, align 8, !tbaa !22
  %46 = getelementptr inbounds nuw %struct.XFadeContext, ptr %45, i32 0, i32 5
  %47 = load i32, ptr %46, align 8, !tbaa !82
  %48 = icmp slt i32 %44, %47
  br i1 %48, label %50, label %49

49:                                               ; preds = %43
  store i32 2, ptr %22, align 4
  call void @llvm.lifetime.end.p0(i64 4, ptr %21) #10
  br label %176

50:                                               ; preds = %43
  call void @llvm.lifetime.start.p0(i64 8, ptr %23) #10
  %51 = load ptr, ptr %10, align 8, !tbaa !36
  %52 = getelementptr inbounds nuw %struct.AVFrame, ptr %51, i32 0, i32 0
  %53 = load i32, ptr %21, align 4, !tbaa !32
  %54 = sext i32 %53 to i64
  %55 = getelementptr inbounds [8 x ptr], ptr %52, i64 0, i64 %54
  %56 = load ptr, ptr %55, align 8, !tbaa !96
  %57 = load i32, ptr %14, align 4, !tbaa !32
  %58 = load ptr, ptr %10, align 8, !tbaa !36
  %59 = getelementptr inbounds nuw %struct.AVFrame, ptr %58, i32 0, i32 1
  %60 = load i32, ptr %21, align 4, !tbaa !32
  %61 = sext i32 %60 to i64
  %62 = getelementptr inbounds [8 x i32], ptr %59, i64 0, i64 %61
  %63 = load i32, ptr %62, align 4, !tbaa !32
  %64 = mul nsw i32 %57, %63
  %65 = sext i32 %64 to i64
  %66 = getelementptr inbounds i8, ptr %56, i64 %65
  store ptr %66, ptr %23, align 8, !tbaa !96
  call void @llvm.lifetime.start.p0(i64 8, ptr %24) #10
  %67 = load ptr, ptr %11, align 8, !tbaa !36
  %68 = getelementptr inbounds nuw %struct.AVFrame, ptr %67, i32 0, i32 0
  %69 = load i32, ptr %21, align 4, !tbaa !32
  %70 = sext i32 %69 to i64
  %71 = getelementptr inbounds [8 x ptr], ptr %68, i64 0, i64 %70
  %72 = load ptr, ptr %71, align 8, !tbaa !96
  %73 = load i32, ptr %14, align 4, !tbaa !32
  %74 = load ptr, ptr %11, align 8, !tbaa !36
  %75 = getelementptr inbounds nuw %struct.AVFrame, ptr %74, i32 0, i32 1
  %76 = load i32, ptr %21, align 4, !tbaa !32
  %77 = sext i32 %76 to i64
  %78 = getelementptr inbounds [8 x i32], ptr %75, i64 0, i64 %77
  %79 = load i32, ptr %78, align 4, !tbaa !32
  %80 = mul nsw i32 %73, %79
  %81 = sext i32 %80 to i64
  %82 = getelementptr inbounds i8, ptr %72, i64 %81
  store ptr %82, ptr %24, align 8, !tbaa !96
  call void @llvm.lifetime.start.p0(i64 8, ptr %25) #10
  %83 = load ptr, ptr %12, align 8, !tbaa !36
  %84 = getelementptr inbounds nuw %struct.AVFrame, ptr %83, i32 0, i32 0
  %85 = load i32, ptr %21, align 4, !tbaa !32
  %86 = sext i32 %85 to i64
  %87 = getelementptr inbounds [8 x ptr], ptr %84, i64 0, i64 %86
  %88 = load ptr, ptr %87, align 8, !tbaa !96
  %89 = load i32, ptr %14, align 4, !tbaa !32
  %90 = load ptr, ptr %12, align 8, !tbaa !36
  %91 = getelementptr inbounds nuw %struct.AVFrame, ptr %90, i32 0, i32 1
  %92 = load i32, ptr %21, align 4, !tbaa !32
  %93 = sext i32 %92 to i64
  %94 = getelementptr inbounds [8 x i32], ptr %91, i64 0, i64 %93
  %95 = load i32, ptr %94, align 4, !tbaa !32
  %96 = mul nsw i32 %89, %95
  %97 = sext i32 %96 to i64
  %98 = getelementptr inbounds i8, ptr %88, i64 %97
  store ptr %98, ptr %25, align 8, !tbaa !96
  call void @llvm.lifetime.start.p0(i64 4, ptr %26) #10
  store i32 0, ptr %26, align 4, !tbaa !32
  br label %99

99:                                               ; preds = %169, %50
  %100 = load i32, ptr %26, align 4, !tbaa !32
  %101 = load i32, ptr %18, align 4, !tbaa !32
  %102 = icmp slt i32 %100, %101
  br i1 %102, label %104, label %103

103:                                              ; preds = %99
  store i32 5, ptr %22, align 4
  call void @llvm.lifetime.end.p0(i64 4, ptr %26) #10
  br label %172

104:                                              ; preds = %99
  call void @llvm.lifetime.start.p0(i64 4, ptr %27) #10
  store i32 0, ptr %27, align 4, !tbaa !32
  br label %105

105:                                              ; preds = %135, %104
  %106 = load i32, ptr %27, align 4, !tbaa !32
  %107 = load i32, ptr %19, align 4, !tbaa !32
  %108 = icmp slt i32 %106, %107
  br i1 %108, label %110, label %109

109:                                              ; preds = %105
  store i32 8, ptr %22, align 4
  call void @llvm.lifetime.end.p0(i64 4, ptr %27) #10
  br label %138

110:                                              ; preds = %105
  %111 = load i32, ptr %27, align 4, !tbaa !32
  %112 = load i32, ptr %20, align 4, !tbaa !32
  %113 = icmp sgt i32 %111, %112
  br i1 %113, label %114, label %121

114:                                              ; preds = %110
  %115 = load ptr, ptr %23, align 8, !tbaa !96
  %116 = load i32, ptr %27, align 4, !tbaa !32
  %117 = sext i32 %116 to i64
  %118 = getelementptr inbounds i8, ptr %115, i64 %117
  %119 = load i8, ptr %118, align 1, !tbaa !97
  %120 = zext i8 %119 to i32
  br label %128

121:                                              ; preds = %110
  %122 = load ptr, ptr %24, align 8, !tbaa !96
  %123 = load i32, ptr %27, align 4, !tbaa !32
  %124 = sext i32 %123 to i64
  %125 = getelementptr inbounds i8, ptr %122, i64 %124
  %126 = load i8, ptr %125, align 1, !tbaa !97
  %127 = zext i8 %126 to i32
  br label %128

128:                                              ; preds = %121, %114
  %129 = phi i32 [ %120, %114 ], [ %127, %121 ]
  %130 = trunc i32 %129 to i8
  %131 = load ptr, ptr %25, align 8, !tbaa !96
  %132 = load i32, ptr %27, align 4, !tbaa !32
  %133 = sext i32 %132 to i64
  %134 = getelementptr inbounds i8, ptr %131, i64 %133
  store i8 %130, ptr %134, align 1, !tbaa !97
  br label %135

135:                                              ; preds = %128
  %136 = load i32, ptr %27, align 4, !tbaa !32
  %137 = add nsw i32 %136, 1
  store i32 %137, ptr %27, align 4, !tbaa !32
  br label %105, !llvm.loop !118

138:                                              ; preds = %109
  %139 = load ptr, ptr %12, align 8, !tbaa !36
  %140 = getelementptr inbounds nuw %struct.AVFrame, ptr %139, i32 0, i32 1
  %141 = load i32, ptr %21, align 4, !tbaa !32
  %142 = sext i32 %141 to i64
  %143 = getelementptr inbounds [8 x i32], ptr %140, i64 0, i64 %142
  %144 = load i32, ptr %143, align 4, !tbaa !32
  %145 = sdiv i32 %144, 1
  %146 = load ptr, ptr %25, align 8, !tbaa !96
  %147 = sext i32 %145 to i64
  %148 = getelementptr inbounds i8, ptr %146, i64 %147
  store ptr %148, ptr %25, align 8, !tbaa !96
  %149 = load ptr, ptr %10, align 8, !tbaa !36
  %150 = getelementptr inbounds nuw %struct.AVFrame, ptr %149, i32 0, i32 1
  %151 = load i32, ptr %21, align 4, !tbaa !32
  %152 = sext i32 %151 to i64
  %153 = getelementptr inbounds [8 x i32], ptr %150, i64 0, i64 %152
  %154 = load i32, ptr %153, align 4, !tbaa !32
  %155 = sdiv i32 %154, 1
  %156 = load ptr, ptr %23, align 8, !tbaa !96
  %157 = sext i32 %155 to i64
  %158 = getelementptr inbounds i8, ptr %156, i64 %157
  store ptr %158, ptr %23, align 8, !tbaa !96
  %159 = load ptr, ptr %11, align 8, !tbaa !36
  %160 = getelementptr inbounds nuw %struct.AVFrame, ptr %159, i32 0, i32 1
  %161 = load i32, ptr %21, align 4, !tbaa !32
  %162 = sext i32 %161 to i64
  %163 = getelementptr inbounds [8 x i32], ptr %160, i64 0, i64 %162
  %164 = load i32, ptr %163, align 4, !tbaa !32
  %165 = sdiv i32 %164, 1
  %166 = load ptr, ptr %24, align 8, !tbaa !96
  %167 = sext i32 %165 to i64
  %168 = getelementptr inbounds i8, ptr %166, i64 %167
  store ptr %168, ptr %24, align 8, !tbaa !96
  br label %169

169:                                              ; preds = %138
  %170 = load i32, ptr %26, align 4, !tbaa !32
  %171 = add nsw i32 %170, 1
  store i32 %171, ptr %26, align 4, !tbaa !32
  br label %99, !llvm.loop !119

172:                                              ; preds = %103
  call void @llvm.lifetime.end.p0(i64 8, ptr %25) #10
  call void @llvm.lifetime.end.p0(i64 8, ptr %24) #10
  call void @llvm.lifetime.end.p0(i64 8, ptr %23) #10
  br label %173

173:                                              ; preds = %172
  %174 = load i32, ptr %21, align 4, !tbaa !32
  %175 = add nsw i32 %174, 1
  store i32 %175, ptr %21, align 4, !tbaa !32
  br label %43, !llvm.loop !120

176:                                              ; preds = %49
  call void @llvm.lifetime.end.p0(i64 4, ptr %20) #10
  call void @llvm.lifetime.end.p0(i64 4, ptr %19) #10
  call void @llvm.lifetime.end.p0(i64 4, ptr %18) #10
  call void @llvm.lifetime.end.p0(i64 8, ptr %17) #10
  ret void
}