; Function Attrs: nofree norecurse nosync nounwind memory(readwrite, inaccessiblemem: none) uwtable
define internal void @wiperight8_transition(ptr noundef readonly captures(none) %0, ptr noundef readonly captures(none) %1, ptr noundef readonly captures(none) %2, ptr noundef readonly captures(none) %3, float noundef %4, i32 noundef %5, i32 noundef %6, i32 %7) #6 {
  %9 = getelementptr inbounds nuw i8, ptr %0, i64 72
  %10 = load ptr, ptr %9, align 8, !tbaa !4
  %11 = sub i32 %6, %5
  %12 = getelementptr inbounds nuw i8, ptr %3, i64 104
  %13 = load i32, ptr %12, align 8, !tbaa !85
  %14 = sitofp i32 %13 to float
  %15 = fsub nsz float 1.000000e+00, %4
  %16 = fmul nsz float %15, %14
  %17 = fptosi float %16 to i32
  %18 = getelementptr inbounds nuw i8, ptr %10, i64 40
  %19 = load i32, ptr %18, align 8, !tbaa !77
  %20 = icmp sgt i32 %19, 0
  br i1 %20, label %.lr.ph, label %._crit_edge

.lr.ph:                                           ; preds = %8
  %21 = getelementptr inbounds nuw i8, ptr %1, i64 64
  %22 = getelementptr inbounds nuw i8, ptr %2, i64 64
  %23 = getelementptr inbounds nuw i8, ptr %3, i64 64
  %24 = icmp sgt i32 %11, 0
  %25 = icmp sgt i32 %13, 0
  %or.cond = select i1 %24, i1 %25, i1 false
  br i1 %or.cond, label %.preheader.lr.ph.us.us.preheader, label %._crit_edge

.preheader.lr.ph.us.us.preheader:                 ; preds = %.lr.ph
  %26 = sext i32 %17 to i64
  %wide.trip.count = zext nneg i32 %13 to i64
  br label %.preheader.lr.ph.us.us

.preheader.lr.ph.us.us:                           ; preds = %.preheader.lr.ph.us.us.preheader, %._crit_edge57.split.us.us.us
  %indvars.iv70 = phi i64 [ 0, %.preheader.lr.ph.us.us.preheader ], [ %indvars.iv.next71, %._crit_edge57.split.us.us.us ]
  %27 = getelementptr inbounds nuw [8 x ptr], ptr %1, i64 0, i64 %indvars.iv70
  %28 = load ptr, ptr %27, align 8, !tbaa !89
  %29 = getelementptr inbounds nuw [8 x i32], ptr %21, i64 0, i64 %indvars.iv70
  %30 = load i32, ptr %29, align 4, !tbaa !31
  %31 = mul nsw i32 %30, %5
  %32 = sext i32 %31 to i64
  %33 = getelementptr inbounds i8, ptr %28, i64 %32
  %34 = getelementptr inbounds nuw [8 x ptr], ptr %2, i64 0, i64 %indvars.iv70
  %35 = load ptr, ptr %34, align 8, !tbaa !89
  %36 = getelementptr inbounds nuw [8 x i32], ptr %22, i64 0, i64 %indvars.iv70
  %37 = load i32, ptr %36, align 4, !tbaa !31
  %38 = mul nsw i32 %37, %5
  %39 = sext i32 %38 to i64
  %40 = getelementptr inbounds i8, ptr %35, i64 %39
  %41 = getelementptr inbounds nuw [8 x ptr], ptr %3, i64 0, i64 %indvars.iv70
  %42 = load ptr, ptr %41, align 8, !tbaa !89
  %43 = getelementptr inbounds nuw [8 x i32], ptr %23, i64 0, i64 %indvars.iv70
  %44 = load i32, ptr %43, align 4, !tbaa !31
  %45 = mul nsw i32 %44, %5
  %46 = sext i32 %45 to i64
  %47 = getelementptr inbounds i8, ptr %42, i64 %46
  br label %.preheader.us.us.us

.preheader.us.us.us:                              ; preds = %._crit_edge.us.us.us, %.preheader.lr.ph.us.us
  %.04656.us.us.us = phi i32 [ 0, %.preheader.lr.ph.us.us ], [ %60, %._crit_edge.us.us.us ]
  %.04755.us.us.us = phi ptr [ %47, %.preheader.lr.ph.us.us ], [ %53, %._crit_edge.us.us.us ]
  %.04854.us.us.us = phi ptr [ %40, %.preheader.lr.ph.us.us ], [ %59, %._crit_edge.us.us.us ]
  %.04953.us.us.us = phi ptr [ %33, %.preheader.lr.ph.us.us ], [ %56, %._crit_edge.us.us.us ]
  br label %48

48:                                               ; preds = %48, %.preheader.us.us.us
  %indvars.iv = phi i64 [ %indvars.iv.next, %48 ], [ 0, %.preheader.us.us.us ]
  %49 = icmp sgt i64 %indvars.iv, %26
  %.in.in.v.us.us.us = select i1 %49, ptr %.04953.us.us.us, ptr %.04854.us.us.us
  %.in.in.us.us.us = getelementptr inbounds nuw i8, ptr %.in.in.v.us.us.us, i64 %indvars.iv
  %.in51.us.us.us = load i8, ptr %.in.in.us.us.us, align 1, !tbaa !90
  %50 = getelementptr inbounds nuw i8, ptr %.04755.us.us.us, i64 %indvars.iv
  store i8 %.in51.us.us.us, ptr %50, align 1, !tbaa !90
  %indvars.iv.next = add nuw nsw i64 %indvars.iv, 1
  %exitcond.not = icmp eq i64 %indvars.iv.next, %wide.trip.count
  br i1 %exitcond.not, label %._crit_edge.us.us.us, label %48, !llvm.loop !109

._crit_edge.us.us.us:                             ; preds = %48
  %51 = load i32, ptr %43, align 4, !tbaa !31
  %52 = sext i32 %51 to i64
  %53 = getelementptr inbounds i8, ptr %.04755.us.us.us, i64 %52
  %54 = load i32, ptr %29, align 4, !tbaa !31
  %55 = sext i32 %54 to i64
  %56 = getelementptr inbounds i8, ptr %.04953.us.us.us, i64 %55
  %57 = load i32, ptr %36, align 4, !tbaa !31
  %58 = sext i32 %57 to i64
  %59 = getelementptr inbounds i8, ptr %.04854.us.us.us, i64 %58
  %60 = add nuw nsw i32 %.04656.us.us.us, 1
  %exitcond69.not = icmp eq i32 %60, %11
  br i1 %exitcond69.not, label %._crit_edge57.split.us.us.us, label %.preheader.us.us.us, !llvm.loop !110

._crit_edge57.split.us.us.us:                     ; preds = %._crit_edge.us.us.us
  %indvars.iv.next71 = add nuw nsw i64 %indvars.iv70, 1
  %61 = load i32, ptr %18, align 8, !tbaa !77
  %62 = sext i32 %61 to i64
  %63 = icmp slt i64 %indvars.iv.next71, %62
  br i1 %63, label %.preheader.lr.ph.us.us, label %._crit_edge, !llvm.loop !111

._crit_edge:                                      ; preds = %._crit_edge57.split.us.us.us, %.lr.ph, %8
  ret void
}